; Function Attrs: mustprogress uwtable
define hidden void @_Z14install_qe_cmdR11cmd_contextPKc(ptr noundef nonnull align 8 dereferenceable(896) %0, ptr noundef %1) local_unnamed_addr #3 personality ptr @__gxx_personality_v0 {
  %3 = tail call noalias noundef ptr @_ZN6memory8allocateEm(i64 noundef 64)
  store ptr getelementptr inbounds nuw inrange(-16, 224) (i8, ptr @_ZTV3cmd, i64 16), ptr %3, align 8, !tbaa !3
  %4 = getelementptr inbounds nuw i8, ptr %3, i64 8
  tail call void @_ZN6symbolC1EPKc(ptr noundef nonnull align 8 dereferenceable(8) %4, ptr noundef %1)
  %5 = getelementptr inbounds nuw i8, ptr %3, i64 16
  tail call void @llvm.memset.p0.i64(ptr noundef nonnull align 8 dereferenceable(40) %5, i8 0, i64 40, i1 false)
  store ptr getelementptr inbounds nuw inrange(-16, 240) (i8, ptr @_ZTV6qe_cmd, i64 16), ptr %3, align 8, !tbaa !3
  tail call void @_ZN11cmd_context6insertEP3cmd(ptr noundef nonnull align 8 dereferenceable(896) %0, ptr noundef nonnull %3)
  ret void
}